target datalayout = "e-m:e-p270:32:32-p271:32:32-p272:64:64-i64:64-i128:128-f80:128-n8:16:32:64-S128"
target triple = "x86_64-pc-linux-gnu"

%"class.std::__shared_count" = type { ptr }
%"class.arrow::Status" = type { ptr }
%"class.arrow::TypedBufferBuilder" = type { %"class.arrow::BufferBuilder", i64, i64 }
%"class.arrow::BufferBuilder" = type { %"class.std::shared_ptr.97", ptr, ptr, i64, i64, i64 }
%"class.std::shared_ptr.97" = type { %"class.std::__shared_ptr.98" }
%"class.std::__shared_ptr.98" = type { ptr, %"class.std::__shared_count" }
%"class.arrow::TypedBufferBuilder.100" = type { %"class.arrow::BufferBuilder" }
%"struct.arrow::compute::internal::(anonymous namespace)::VarBinarySelectionImpl" = type { %"struct.arrow::compute::internal::(anonymous namespace)::Selection.277", %"class.arrow::TypedBufferBuilder.100", %"class.arrow::TypedBufferBuilder.278" }
%"struct.arrow::compute::internal::(anonymous namespace)::Selection.277" = type { ptr, ptr, ptr, ptr, i64, ptr, %"class.arrow::TypedBufferBuilder" }
%"class.arrow::TypedBufferBuilder.278" = type { %"class.arrow::BufferBuilder" }

; Function Attrs: inlinehint mustprogress nounwind uwtable
define linkonce_odr noundef nonnull align 8 dereferenceable(8) ptr @_ZSt3maxIlERKT_S2_S2_(ptr noundef nonnull align 8 dereferenceable(8) %0, ptr noundef nonnull align 8 dereferenceable(8) %1) #4 comdat {
  %3 = alloca ptr, align 8
  %4 = alloca ptr, align 8
  %5 = alloca ptr, align 8
  store ptr %0, ptr %4, align 8, !tbaa !414
  store ptr %1, ptr %5, align 8, !tbaa !414
  %6 = load ptr, ptr %4, align 8, !tbaa !414
  %7 = load i64, ptr %6, align 8, !tbaa !43
  %8 = load ptr, ptr %5, align 8, !tbaa !414
  %9 = load i64, ptr %8, align 8, !tbaa !43
  %10 = icmp slt i64 %7, %9
  br i1 %10, label %11, label %13

11:                                               ; preds = %2
  %12 = load ptr, ptr %5, align 8, !tbaa !414
  store ptr %12, ptr %3, align 8
  br label %15

13:                                               ; preds = %2
  %14 = load ptr, ptr %4, align 8, !tbaa !414
  store ptr %14, ptr %3, align 8
  br label %15

15:                                               ; preds = %13, %11
  %16 = load ptr, ptr %3, align 8
  ret ptr %16
}

; Function Attrs: mustprogress nounwind uwtable
define linkonce_odr void @_ZN5arrow6StatusC2Ev(ptr noundef nonnull align 8 dereferenceable(8) %0) unnamed_addr #0 comdat align 2 {
  %2 = alloca ptr, align 8
  store ptr %0, ptr %2, align 8, !tbaa !131
  %3 = load ptr, ptr %2, align 8
  %4 = getelementptr inbounds nuw %"class.arrow::Status", ptr %3, i32 0, i32 0
  store ptr null, ptr %4, align 8, !tbaa !133
  ret void
}

; Function Attrs: mustprogress nounwind uwtable
define linkonce_odr noundef i64 @_ZN5arrow13BufferBuilder12GrowByFactorEll(i64 noundef %0, i64 noundef %1) #0 comdat align 2 {
  %3 = alloca i64, align 8
  %4 = alloca i64, align 8
  %5 = alloca i64, align 8
  store i64 %0, ptr %3, align 8, !tbaa !43
  store i64 %1, ptr %4, align 8, !tbaa !43
  call void @llvm.lifetime.start.p0(i64 8, ptr %5) #20
  %6 = load i64, ptr %3, align 8, !tbaa !43
  %7 = mul nsw i64 %6, 2
  store i64 %7, ptr %5, align 8, !tbaa !43
  %8 = call noundef nonnull align 8 dereferenceable(8) ptr @_ZSt3maxIlERKT_S2_S2_(ptr noundef nonnull align 8 dereferenceable(8) %4, ptr noundef nonnull align 8 dereferenceable(8) %5)
  %9 = load i64, ptr %8, align 8, !tbaa !43
  call void @llvm.lifetime.end.p0(i64 8, ptr %5) #20
  ret i64 %9
}

; Function Attrs: mustprogress nounwind uwtable
define linkonce_odr void @_ZN5arrow6Status2OKEv(ptr dead_on_unwind noalias writable sret(%"class.arrow::Status") align 8 %0) #0 comdat align 2 {
  %2 = alloca ptr, align 8
  store ptr %0, ptr %2, align 8
  call void @_ZN5arrow6StatusC2Ev(ptr noundef nonnull align 8 dereferenceable(8) %0) #20
  ret void
}

; Function Attrs: mustprogress uwtable
define linkonce_odr void @_ZN5arrow13BufferBuilder7ReserveEl(ptr dead_on_unwind noalias writable sret(%"class.arrow::Status") align 8 %0, ptr noundef nonnull align 8 dereferenceable(56) %1, i64 noundef %2) #1 comdat align 2 {
  %4 = alloca ptr, align 8
  %5 = alloca ptr, align 8
  %6 = alloca i64, align 8
  %7 = alloca i64, align 8
  %8 = alloca i32, align 4
  store ptr %0, ptr %4, align 8
  store ptr %1, ptr %5, align 8, !tbaa !544
  store i64 %2, ptr %6, align 8, !tbaa !43
  %9 = load ptr, ptr %5, align 8
  call void @llvm.lifetime.start.p0(i64 8, ptr %7) #20
  %10 = getelementptr inbounds nuw %"class.arrow::BufferBuilder", ptr %9, i32 0, i32 4
  %11 = load i64, ptr %10, align 8, !tbaa !549
  %12 = load i64, ptr %6, align 8, !tbaa !43
  %13 = add nsw i64 %11, %12
  store i64 %13, ptr %7, align 8, !tbaa !43
  %14 = load i64, ptr %7, align 8, !tbaa !43
  %15 = getelementptr inbounds nuw %"class.arrow::BufferBuilder", ptr %9, i32 0, i32 3
  %16 = load i64, ptr %15, align 8, !tbaa !548
  %17 = icmp sle i64 %14, %16
  br i1 %17, label %18, label %19

18:                                               ; preds = %3
  call void @_ZN5arrow6Status2OKEv(ptr dead_on_unwind writable sret(%"class.arrow::Status") align 8 %0)
  store i32 1, ptr %8, align 4
  br label %24

19:                                               ; preds = %3
  %20 = getelementptr inbounds nuw %"class.arrow::BufferBuilder", ptr %9, i32 0, i32 3
  %21 = load i64, ptr %20, align 8, !tbaa !548
  %22 = load i64, ptr %7, align 8, !tbaa !43
  %23 = call noundef i64 @_ZN5arrow13BufferBuilder12GrowByFactorEll(i64 noundef %21, i64 noundef %22)
  call void @_ZN5arrow13BufferBuilder6ResizeElb(ptr dead_on_unwind writable sret(%"class.arrow::Status") align 8 %0, ptr noundef nonnull align 8 dereferenceable(56) %9, i64 noundef %23, i1 noundef zeroext false)
  store i32 1, ptr %8, align 4
  br label %24

24:                                               ; preds = %19, %18
  call void @llvm.lifetime.end.p0(i64 8, ptr %7) #20
  ret void
}

; Function Attrs: mustprogress uwtable
define linkonce_odr void @_ZN5arrow18TypedBufferBuilderIivE7ReserveEl(ptr dead_on_unwind noalias writable sret(%"class.arrow::Status") align 8 %0, ptr noundef nonnull align 8 dereferenceable(56) %1, i64 noundef %2) #1 comdat align 2 {
  %4 = alloca ptr, align 8
  %5 = alloca ptr, align 8
  %6 = alloca i64, align 8
  store ptr %0, ptr %4, align 8
  store ptr %1, ptr %5, align 8, !tbaa !505
  store i64 %2, ptr %6, align 8, !tbaa !43
  %7 = load ptr, ptr %5, align 8
  %8 = getelementptr inbounds nuw %"class.arrow::TypedBufferBuilder.100", ptr %7, i32 0, i32 0
  %9 = load i64, ptr %6, align 8, !tbaa !43
  %10 = mul i64 %9, 4
  call void @_ZN5arrow13BufferBuilder7ReserveEl(ptr dead_on_unwind writable sret(%"class.arrow::Status") align 8 %0, ptr noundef nonnull align 8 dereferenceable(56) %8, i64 noundef %10)
  ret void
}

; Function Attrs: mustprogress uwtable
define internal void @_ZN5arrow7compute8internal12_GLOBAL__N_122VarBinarySelectionImplINS_10BinaryTypeEE4InitEv(ptr dead_on_unwind noalias writable sret(%"class.arrow::Status") align 8 %0, ptr noundef nonnull align 8 dereferenceable(232) %1) unnamed_addr #1 align 2 {
  %3 = alloca ptr, align 8
  %4 = alloca ptr, align 8
  store ptr %0, ptr %3, align 8
  store ptr %1, ptr %4, align 8, !tbaa !1306
  %5 = load ptr, ptr %4, align 8
  %6 = getelementptr inbounds nuw %"struct.arrow::compute::internal::(anonymous namespace)::VarBinarySelectionImpl", ptr %5, i32 0, i32 1
  %7 = getelementptr inbounds nuw %"struct.arrow::compute::internal::(anonymous namespace)::Selection.277", ptr %5, i32 0, i32 4
  %8 = load i64, ptr %7, align 8, !tbaa !1310
  %9 = add nsw i64 %8, 1
  call void @_ZN5arrow18TypedBufferBuilderIivE7ReserveEl(ptr dead_on_unwind writable sret(%"class.arrow::Status") align 8 %0, ptr noundef nonnull align 8 dereferenceable(56) %6, i64 noundef %9)
  ret void
}