; Function Attrs: mustprogress uwtable
define internal void @_ZN5arrow7compute8internal12_GLOBAL__N_122VarBinarySelectionImplINS_10BinaryTypeEE4InitEv(ptr dead_on_unwind noalias writable sret(%"class.arrow::Status") align 8 %0, ptr noundef nonnull align 8 dereferenceable(232) %1) unnamed_addr #1 align 2 {
  %3 = getelementptr inbounds nuw i8, ptr %1, i64 32
  %4 = load i64, ptr %3, align 8, !tbaa !1309
  tail call void @llvm.experimental.noalias.scope.decl(metadata !4310)
  %5 = shl i64 %4, 2
  %6 = add i64 %5, 4
  tail call void @llvm.experimental.noalias.scope.decl(metadata !4313)
  %7 = getelementptr inbounds nuw i8, ptr %1, i64 160
  %8 = load i64, ptr %7, align 8, !tbaa !280, !noalias !4316
  %9 = add nsw i64 %6, %8
  %10 = getelementptr inbounds nuw i8, ptr %1, i64 152
  %11 = load i64, ptr %10, align 8, !tbaa !218, !noalias !4316
  %.not.i.i = icmp sgt i64 %9, %11
  br i1 %.not.i.i, label %13, label %12

12:                                               ; preds = %2
  store ptr null, ptr %0, align 8, !tbaa !107, !alias.scope !4317
  br label %_ZN5arrow18TypedBufferBuilderIivE7ReserveEl.exit

13:                                               ; preds = %2
  %14 = getelementptr inbounds nuw i8, ptr %1, i64 120
  %15 = shl nsw i64 %11, 1
  %.sroa.speculated.i.i.i = tail call noundef i64 @llvm.smax.i64(i64 %9, i64 %15)
  tail call void @_ZN5arrow13BufferBuilder6ResizeElb(ptr dead_on_unwind writable sret(%"class.arrow::Status") align 8 %0, ptr noundef nonnull align 8 dereferenceable(56) %14, i64 noundef %.sroa.speculated.i.i.i, i1 noundef zeroext false)
  br label %_ZN5arrow18TypedBufferBuilderIivE7ReserveEl.exit

_ZN5arrow18TypedBufferBuilderIivE7ReserveEl.exit: ; preds = %12, %13
  ret void
}